target datalayout = "e-m:e-p270:32:32-p271:32:32-p272:64:64-i64:64-i128:128-f80:128-n8:16:32:64-S128"
target triple = "x86_64-pc-linux-gnu"

%"class.cv::Matx" = type { [9 x double] }
%"class.cv::ppf_match_3d::Pose3D" = type { ptr, double, double, i64, i64, %"class.cv::Matx.0", double, %"class.cv::Vec", %"class.cv::Vec.2" }
%"class.cv::Matx.0" = type { [16 x double] }
%"class.cv::Vec" = type { %"class.cv::Matx.1" }
%"class.cv::Matx.1" = type { [3 x double] }
%"class.cv::Vec.2" = type { %"class.cv::Matx.3" }
%"class.cv::Matx.3" = type { [4 x double] }

; Function Attrs: inlinehint mustprogress nounwind uwtable
define linkonce_odr hidden noundef nonnull align 8 dereferenceable(8) ptr @_ZNK2cv4MatxIdLi3ELi3EEclEii(ptr noundef nonnull align 8 dereferenceable(72) %0, i32 noundef %1, i32 noundef %2) #6 comdat align 2 {
  %4 = alloca ptr, align 8
  %5 = alloca i32, align 4
  %6 = alloca i32, align 4
  store ptr %0, ptr %4, align 8, !tbaa !24
  store i32 %1, ptr %5, align 4, !tbaa !22
  store i32 %2, ptr %6, align 4, !tbaa !22
  %7 = load ptr, ptr %4, align 8
  %8 = getelementptr inbounds nuw %"class.cv::Matx", ptr %7, i32 0, i32 0
  %9 = load i32, ptr %5, align 4, !tbaa !22
  %10 = mul nsw i32 %9, 3
  %11 = load i32, ptr %6, align 4, !tbaa !22
  %12 = add nsw i32 %10, %11
  %13 = sext i32 %12 to i64
  %14 = getelementptr inbounds [9 x double], ptr %8, i64 0, i64 %13
  ret ptr %14
}

; Function Attrs: inlinehint mustprogress nounwind uwtable
define linkonce_odr noundef nonnull align 4 dereferenceable(4) ptr @_ZSt3minIiERKT_S2_S2_(ptr noundef nonnull align 4 dereferenceable(4) %0, ptr noundef nonnull align 4 dereferenceable(4) %1) #6 comdat {
  %3 = alloca ptr, align 8
  %4 = alloca ptr, align 8
  %5 = alloca ptr, align 8
  store ptr %0, ptr %4, align 8, !tbaa !108
  store ptr %1, ptr %5, align 8, !tbaa !108
  %6 = load ptr, ptr %5, align 8, !tbaa !108
  %7 = load i32, ptr %6, align 4, !tbaa !22
  %8 = load ptr, ptr %4, align 8, !tbaa !108
  %9 = load i32, ptr %8, align 4, !tbaa !22
  %10 = icmp slt i32 %7, %9
  br i1 %10, label %11, label %13

11:                                               ; preds = %2
  %12 = load ptr, ptr %5, align 8, !tbaa !108
  store ptr %12, ptr %3, align 8
  br label %15

13:                                               ; preds = %2
  %14 = load ptr, ptr %4, align 8, !tbaa !108
  store ptr %14, ptr %3, align 8
  br label %15

15:                                               ; preds = %13, %11
  %16 = load ptr, ptr %3, align 8
  ret ptr %16
}

; Function Attrs: inlinehint mustprogress uwtable
define internal noundef double @_ZN2cvL5traceIdLi3ELi3EEEdRKNS_4MatxIT_XT0_EXT1_EEE(ptr noundef nonnull align 8 dereferenceable(72) %0) #8 {
  %2 = alloca ptr, align 8
  %3 = alloca double, align 8
  %4 = alloca i32, align 4
  %5 = alloca i32, align 4
  %6 = alloca i32, align 4
  store ptr %0, ptr %2, align 8, !tbaa !24
  call void @llvm.lifetime.start.p0(i64 8, ptr %3) #3
  store double 0.000000e+00, ptr %3, align 8, !tbaa !12
  call void @llvm.lifetime.start.p0(i64 4, ptr %4) #3
  store i32 0, ptr %4, align 4, !tbaa !22
  br label %7

7:                                                ; preds = %21, %1
  %8 = load i32, ptr %4, align 4, !tbaa !22
  call void @llvm.lifetime.start.p0(i64 4, ptr %5) #3
  store i32 3, ptr %5, align 4, !tbaa !22
  call void @llvm.lifetime.start.p0(i64 4, ptr %6) #3
  store i32 3, ptr %6, align 4, !tbaa !22
  %9 = call noundef nonnull align 4 dereferenceable(4) ptr @_ZSt3minIiERKT_S2_S2_(ptr noundef nonnull align 4 dereferenceable(4) %5, ptr noundef nonnull align 4 dereferenceable(4) %6)
  %10 = load i32, ptr %9, align 4, !tbaa !22
  %11 = icmp slt i32 %8, %10
  call void @llvm.lifetime.end.p0(i64 4, ptr %6) #3
  call void @llvm.lifetime.end.p0(i64 4, ptr %5) #3
  br i1 %11, label %13, label %12

12:                                               ; preds = %7
  call void @llvm.lifetime.end.p0(i64 4, ptr %4) #3
  br label %24

13:                                               ; preds = %7
  %14 = load ptr, ptr %2, align 8, !tbaa !24
  %15 = load i32, ptr %4, align 4, !tbaa !22
  %16 = load i32, ptr %4, align 4, !tbaa !22
  %17 = call noundef nonnull align 8 dereferenceable(8) ptr @_ZNK2cv4MatxIdLi3ELi3EEclEii(ptr noundef nonnull align 8 dereferenceable(72) %14, i32 noundef %15, i32 noundef %16)
  %18 = load double, ptr %17, align 8, !tbaa !12
  %19 = load double, ptr %3, align 8, !tbaa !12
  %20 = fadd double %19, %18
  store double %20, ptr %3, align 8, !tbaa !12
  br label %21

21:                                               ; preds = %13
  %22 = load i32, ptr %4, align 4, !tbaa !22
  %23 = add nsw i32 %22, 1
  store i32 %23, ptr %4, align 4, !tbaa !22
  br label %7, !llvm.loop !30

24:                                               ; preds = %12
  %25 = load double, ptr %3, align 8, !tbaa !12
  call void @llvm.lifetime.end.p0(i64 8, ptr %3) #3
  ret double %25
}

; Function Attrs: inlinehint mustprogress nounwind uwtable
define linkonce_odr hidden void @_ZN2cv4MatxIdLi3ELi3EEC2Ev(ptr noundef nonnull align 8 dereferenceable(72) %0) unnamed_addr #6 comdat align 2 {
  %2 = alloca ptr, align 8
  %3 = alloca i32, align 4
  store ptr %0, ptr %2, align 8, !tbaa !24
  %4 = load ptr, ptr %2, align 8
  call void @llvm.lifetime.start.p0(i64 4, ptr %3) #3
  store i32 0, ptr %3, align 4, !tbaa !22
  br label %5

5:                                                ; preds = %14, %1
  %6 = load i32, ptr %3, align 4, !tbaa !22
  %7 = icmp slt i32 %6, 9
  br i1 %7, label %9, label %8

8:                                                ; preds = %5
  call void @llvm.lifetime.end.p0(i64 4, ptr %3) #3
  br label %17

9:                                                ; preds = %5
  %10 = getelementptr inbounds nuw %"class.cv::Matx", ptr %4, i32 0, i32 0
  %11 = load i32, ptr %3, align 4, !tbaa !22
  %12 = sext i32 %11 to i64
  %13 = getelementptr inbounds [9 x double], ptr %10, i64 0, i64 %12
  store double 0.000000e+00, ptr %13, align 8, !tbaa !12
  br label %14

14:                                               ; preds = %9
  %15 = load i32, ptr %3, align 4, !tbaa !22
  %16 = add nsw i32 %15, 1
  store i32 %16, ptr %3, align 4, !tbaa !22
  br label %5, !llvm.loop !26

17:                                               ; preds = %8
  ret void
}

; Function Attrs: mustprogress uwtable
define void @_ZN2cv12ppf_match_3d6Pose3D10updatePoseERNS_4MatxIdLi4ELi4EEE(ptr noundef nonnull align 8 dereferenceable(232) %0, ptr noundef nonnull align 8 dereferenceable(128) %1) #4 align 2 {
  %3 = alloca ptr, align 8
  %4 = alloca ptr, align 8
  %5 = alloca %"class.cv::Matx", align 8
  %6 = alloca double, align 8
  store ptr %0, ptr %3, align 8, !tbaa !3
  store ptr %1, ptr %4, align 8, !tbaa !8
  %7 = load ptr, ptr %3, align 8
  call void @llvm.lifetime.start.p0(i64 72, ptr %5) #3
  call void @_ZN2cv4MatxIdLi3ELi3EEC2Ev(ptr noundef nonnull align 8 dereferenceable(72) %5)
  %8 = load ptr, ptr %4, align 8, !tbaa !8
  %9 = getelementptr inbounds nuw %"class.cv::ppf_match_3d::Pose3D", ptr %7, i32 0, i32 5
  call void @llvm.memcpy.p0.p0.i64(ptr align 8 %9, ptr align 8 %8, i64 128, i1 false), !tbaa.struct !10
  %10 = getelementptr inbounds nuw %"class.cv::ppf_match_3d::Pose3D", ptr %7, i32 0, i32 5
  %11 = getelementptr inbounds nuw %"class.cv::ppf_match_3d::Pose3D", ptr %7, i32 0, i32 7
  call void @_ZN2cv12ppf_match_3dL8poseToRTERKNS_4MatxIdLi4ELi4EEERNS1_IdLi3ELi3EEERNS_3VecIdLi3EEE(ptr noundef nonnull align 8 dereferenceable(128) %10, ptr noundef nonnull align 8 dereferenceable(72) %5, ptr noundef nonnull align 8 dereferenceable(24) %11)
  call void @llvm.lifetime.start.p0(i64 8, ptr %6) #3
  %12 = call noundef double @_ZN2cvL5traceIdLi3ELi3EEEdRKNS_4MatxIT_XT0_EXT1_EEE(ptr noundef nonnull align 8 dereferenceable(72) %5)
  store double %12, ptr %6, align 8, !tbaa !12
  %13 = load double, ptr %6, align 8, !tbaa !12
  %14 = fsub double %13, 3.000000e+00
  %15 = call double @llvm.fabs.f64(double %14)
  %16 = fcmp ole double %15, 0x3E80000000000000
  br i1 %16, label %17, label %19

17:                                               ; preds = %2
  %18 = getelementptr inbounds nuw %"class.cv::ppf_match_3d::Pose3D", ptr %7, i32 0, i32 6
  store double 0.000000e+00, ptr %18, align 8, !tbaa !14
  br label %33

19:                                               ; preds = %2
  %20 = load double, ptr %6, align 8, !tbaa !12
  %21 = fadd double %20, 1.000000e+00
  %22 = call double @llvm.fabs.f64(double %21)
  %23 = fcmp ole double %22, 0x3E80000000000000
  br i1 %23, label %24, label %26

24:                                               ; preds = %19
  %25 = getelementptr inbounds nuw %"class.cv::ppf_match_3d::Pose3D", ptr %7, i32 0, i32 6
  store double 0x400921FB54442D18, ptr %25, align 8, !tbaa !14
  br label %32

26:                                               ; preds = %19
  %27 = load double, ptr %6, align 8, !tbaa !12
  %28 = fsub double %27, 1.000000e+00
  %29 = fdiv double %28, 2.000000e+00
  %30 = call double @acos(double noundef %29) #3, !tbaa !22
  %31 = getelementptr inbounds nuw %"class.cv::ppf_match_3d::Pose3D", ptr %7, i32 0, i32 6
  store double %30, ptr %31, align 8, !tbaa !14
  br label %32

32:                                               ; preds = %26, %24
  br label %33

33:                                               ; preds = %32, %17
  %34 = getelementptr inbounds nuw %"class.cv::ppf_match_3d::Pose3D", ptr %7, i32 0, i32 8
  call void @_ZN2cv12ppf_match_3dL9dcmToQuatERNS_4MatxIdLi3ELi3EEERNS_3VecIdLi4EEE(ptr noundef nonnull align 8 dereferenceable(72) %5, ptr noundef nonnull align 8 dereferenceable(32) %34)
  call void @llvm.lifetime.end.p0(i64 8, ptr %6) #3
  call void @llvm.lifetime.end.p0(i64 72, ptr %5) #3
  ret void
}