; Function Attrs: mustprogress uwtable
define void @_ZN2cv12ppf_match_3d6Pose3D10updatePoseERNS_4MatxIdLi4ELi4EEE(ptr noundef nonnull align 8 dereferenceable(232) initializes((40, 168)) %0, ptr noundef nonnull readonly align 8 captures(none) dereferenceable(128) %1) local_unnamed_addr #3 align 2 {
  %3 = alloca %"class.cv::Matx", align 8
  call void @llvm.lifetime.start.p0(i64 72, ptr nonnull %3) #26
  call void @llvm.memset.p0.i64(ptr noundef nonnull align 8 dereferenceable(72) %3, i8 0, i64 72, i1 false), !tbaa !3
  %4 = getelementptr inbounds nuw i8, ptr %0, i64 40
  tail call void @llvm.memcpy.p0.p0.i64(ptr noundef nonnull align 8 dereferenceable(128) %4, ptr noundef nonnull align 8 dereferenceable(128) %1, i64 128, i1 false), !tbaa.struct !7
  %5 = getelementptr inbounds nuw i8, ptr %0, i64 176
  call fastcc void @_ZN2cv12ppf_match_3dL8poseToRTERKNS_4MatxIdLi4ELi4EEERNS1_IdLi3ELi3EEERNS_3VecIdLi3EEE(ptr noundef nonnull align 8 dereferenceable(128) %4, ptr noundef nonnull align 8 dereferenceable(72) %3, ptr noundef nonnull align 8 dereferenceable(24) %5)
  br label %6

6:                                                ; preds = %6, %2
  %indvars.iv.i = phi i64 [ 0, %2 ], [ %indvars.iv.next.i, %6 ]
  %.0610.i = phi double [ 0.000000e+00, %2 ], [ %10, %6 ]
  %7 = shl nuw nsw i64 %indvars.iv.i, 2
  %8 = getelementptr inbounds nuw [9 x double], ptr %3, i64 0, i64 %7
  %9 = load double, ptr %8, align 8, !tbaa !3
  %10 = fadd double %.0610.i, %9
  %indvars.iv.next.i = add nuw nsw i64 %indvars.iv.i, 1
  %exitcond.not.i = icmp eq i64 %indvars.iv.next.i, 3
  br i1 %exitcond.not.i, label %_ZN2cvL5traceIdLi3ELi3EEEdRKNS_4MatxIT_XT0_EXT1_EEE.exit, label %6, !llvm.loop !9

_ZN2cvL5traceIdLi3ELi3EEEdRKNS_4MatxIT_XT0_EXT1_EEE.exit: ; preds = %6
  %11 = fadd double %10, -3.000000e+00
  %12 = call double @llvm.fabs.f64(double %11)
  %13 = fcmp ugt double %12, 0x3E80000000000000
  br i1 %13, label %14, label %22

14:                                               ; preds = %_ZN2cvL5traceIdLi3ELi3EEEdRKNS_4MatxIT_XT0_EXT1_EEE.exit
  %15 = fadd double %10, 1.000000e+00
  %16 = call double @llvm.fabs.f64(double %15)
  %17 = fcmp ugt double %16, 0x3E80000000000000
  br i1 %17, label %18, label %22

18:                                               ; preds = %14
  %19 = fadd double %10, -1.000000e+00
  %20 = fmul double %19, 5.000000e-01
  %21 = call double @acos(double noundef %20) #26, !tbaa !11
  br label %22

22:                                               ; preds = %14, %_ZN2cvL5traceIdLi3ELi3EEEdRKNS_4MatxIT_XT0_EXT1_EEE.exit, %18
  %.sink = phi double [ %21, %18 ], [ 0.000000e+00, %_ZN2cvL5traceIdLi3ELi3EEEdRKNS_4MatxIT_XT0_EXT1_EEE.exit ], [ 0x400921FB54442D18, %14 ]
  %23 = getelementptr inbounds nuw i8, ptr %0, i64 168
  store double %.sink, ptr %23, align 8, !tbaa !13
  %24 = getelementptr inbounds nuw i8, ptr %0, i64 200
  call fastcc void @_ZN2cv12ppf_match_3dL9dcmToQuatERNS_4MatxIdLi3ELi3EEERNS_3VecIdLi4EEE(ptr noundef nonnull align 8 dereferenceable(72) %3, ptr noundef nonnull align 8 dereferenceable(32) %24)
  call void @llvm.lifetime.end.p0(i64 72, ptr nonnull %3) #26
  ret void
}